; Function Attrs: mustprogress uwtable
define internal noundef nonnull align 4 dereferenceable(4) ptr @_ZNSt17_Function_handlerIFRiPiEZN4absl18container_internal12_GLOBAL__N_14TestC1EvEUlS1_E_E9_M_invokeERKSt9_Any_dataOS1_(ptr noundef nonnull readonly align 8 captures(none) dereferenceable(16) %0, ptr noundef nonnull readonly align 8 captures(none) dereferenceable(8) %1) #4 align 2 personality ptr @__gxx_personality_v0 {
  %3 = alloca %"class.std::tuple.90", align 8
  %.val = load ptr, ptr %0, align 8, !tbaa !541
  %.val2 = load ptr, ptr %1, align 8, !tbaa !80
  %4 = getelementptr inbounds nuw i8, ptr %.val, i64 168
  tail call void @_ZN7testing8internal25UntypedFunctionMockerBase15SetOwnerAndNameEPKvPKc(ptr noundef nonnull align 8 dereferenceable(72) %4, ptr noundef nonnull align 8 dereferenceable(72) %4, ptr noundef nonnull @.str.73)
  call void @llvm.lifetime.start.p0(i64 8, ptr nonnull %3) #28
  store ptr %.val2, ptr %3, align 8, !tbaa !543
  %5 = call noundef nonnull align 4 dereferenceable(4) ptr @_ZN7testing8internal14FunctionMockerIFRiPiEE10InvokeWithEOSt5tupleIJS3_EE(ptr noundef nonnull align 8 dereferenceable(72) %4, ptr noundef nonnull align 8 dereferenceable(8) %3)
  call void @llvm.lifetime.end.p0(i64 8, ptr nonnull %3) #28
  ret ptr %5
}